(lp1
(lp2
I1100
aF1456112221.745374
aS'US'
p3
aa(lp4
I1100
aF1456112232.1652751
ag3
aa(lp5
I1100
aF1456112232.819087
ag3
aa(lp6
I1100
aF1456112233.3530259
ag3
aa(lp7
I1100
aF1456112234.4843769
ag3
aa(lp8
I1100
aF1456112235.4095571
ag3
aa(lp9
I1100
aF1456112240.2183881
ag3
aa(lp10
I1100
aF1456112245.732425
ag3
aa(lp11
I1100
aF1456112246.6191881
ag3
aa(lp12
I1100
aF1456112247.219234
ag3
aa(lp13
I1000
aF1456112201.049253
ag3
aa(lp14
I1000
aF1456112202.8872471
ag3
aa(lp15
I1000
aF1456112203.7606781
ag3
aa(lp16
I1000
aF1456112204.301682
ag3
aa(lp17
I1000
aF1456112204.9679
ag3
aa(lp18
I1000
aF1456112205.9255159
ag3
aa(lp19
I1000
aF1456112206.737457
ag3
aa(lp20
I1000
aF1456112208.7933581
ag3
aa(lp21
I1000
aF1456112209.9517331
ag3
aa(lp22
I1000
aF1456112211.0538759
ag3
aa(lp23
I1000
aF1456112211.8826499
ag3
aa(lp24
I1000
aF1456112214.32323
ag3
aa(lp25
I800
aF1456113858.9368961
aS'PL'
p26
aa(lp27
I700
aF1456113764.286284
ag26
aa(lp28
I300
aF1456113911.2263939
aS'PL'
p29
aa(lp30
I300
aF1456113929.620424
aS'PL'
p31
aa(lp32
I300
aF1456114034.537348
ag31
aa(lp33
I200
aF1456114143.266052
aS'PL'
p34
aa(lp35
I100
aF1456113496.510376
aS'PL'
p36
aa(lp37
I100
aF1456113570.24967
ag36
aa(lp38
I100
aF1456113796.6645441
ag29
aa(lp39
I100
aF1456114060.689184
aS'PL'
p40
aa(lp41
I0
aF1456112526.996181
aS'PL'
p42
aa(lp43
I0
aF1456112601.630398
ag42
aa(lp44
I0
aF1456112723.168442
aS'PL'
p45
aa(lp46
I0
aF1456112872.6918931
aS'PL'
p47
aa(lp48
I0
aF1456113532.7658739
aS'PL'
p49
aa(lp50
I0
aF1456113583.047677
aS'PL'
p51
aa(lp52
I0
aF1456113618.575201
ag49
aa(lp53
I0
aF1456113619.3757679
aS'PL'
p54
aa(lp55
I0
aF1456113677.0267849
ag51
aa(lp56
I0
aF1456113677.614552
ag54
aa.